

Microchip MPLAB XC8 Assembler V2.41 build 20230208172133 
                                                                                               Fri Sep 08 08:36:04 2023

Microchip MPLAB XC8 C Compiler v2.41 (Free license) build 20230208172133 Og1 
     1                           	processor	16F1939
     2                           	pagewidth 120
     3                           	opt	flic
     4                           	psect	cinit,global,class=CODE,merge=1,delta=2
     5                           	psect	bssCOMMON,global,class=COMMON,space=1,delta=1,noexec
     6                           	psect	cstackCOMMON,global,class=COMMON,space=1,delta=1,noexec
     7                           	psect	maintext,global,class=CODE,merge=1,split=1,delta=2
     8                           	psect	text1,local,class=CODE,merge=1,delta=2
     9                           	psect	text2,local,class=CODE,merge=1,delta=2
    10                           	psect	config,global,abs,ovrld,class=CONFIG,space=4,delta=2,noexec
    11                           	dabs	1,0x7E,2
    12     0000                     
    13                           ; Generated 06/07/2023 GMT
    14                           ; 
    15                           ; Copyright © 2023, Microchip Technology Inc. and its subsidiaries ("Microchip")
    16                           ; All rights reserved.
    17                           ; 
    18                           ; This software is developed by Microchip Technology Inc. and its subsidiaries ("Microch
      +                          ip").
    19                           ; 
    20                           ; Redistribution and use in source and binary forms, with or without modification, are
    21                           ; permitted provided that the following conditions are met:
    22                           ; 
    23                           ;     1. Redistributions of source code must retain the above copyright notice, this lis
      +                          t of
    24                           ;        conditions and the following disclaimer.
    25                           ; 
    26                           ;     2. Redistributions in binary form must reproduce the above copyright notice, this 
      +                          list
    27                           ;        of conditions and the following disclaimer in the documentation and/or other
    28                           ;        materials provided with the distribution. Publication is not required when
    29                           ;        this file is used in an embedded application.
    30                           ; 
    31                           ;     3. Microchip's name may not be used to endorse or promote products derived from th
      +                          is
    32                           ;        software without specific prior written permission.
    33                           ; 
    34                           ; THIS SOFTWARE IS PROVIDED BY MICROCHIP "AS IS" AND ANY EXPRESS OR IMPLIED WARRANTIES,
    35                           ; INCLUDING, BUT NOT LIMITED TO, THE IMPLIED WARRANTIES OF MERCHANTABILITY AND FITNESS F
      +                          OR
    36                           ; PURPOSE ARE DISCLAIMED.  IN NO EVENT SHALL MICROCHIP BE LIABLE FOR ANY DIRECT, INDIREC
      +                          T,
    37                           ; INCIDENTAL, SPECIAL, EXEMPLARY, OR CONSEQUENTIAL DAMAGES (INCLUDING BUT NOT LIMITED TO
    38                           ; PROCUREMENT OF SUBSTITUTE GOODS OR SERVICES; LOSS OF USE, DATA OR PROFITS; OR BUSINESS
    39                           ; INTERRUPTION) HOWSOEVER CAUSED AND ON ANY THEORY OF LIABILITY, WHETHER IN CONTRACT, ST
      +                          RICT
    40                           ; LIABILITY, OR TORT (INCLUDING NEGLIGENCE OR OTHERWISE) ARISING IN ANY WAY OUT OF THE U
      +                          SE OF
    41                           ; THIS SOFTWARE, EVEN IF ADVISED OF THE POSSIBILITY OF SUCH DAMAGE.
    42                           ; 
    43                           ; 
    44                           ; Code-generator required, PIC16F1939 Definitions
    45                           ; 
    46                           ; SFR Addresses
    47     0000                     	;# 
    48     0001                     	;# 
    49     0002                     	;# 
    50     0003                     	;# 
    51     0004                     	;# 
    52     0005                     	;# 
    53     0006                     	;# 
    54     0007                     	;# 
    55     0008                     	;# 
    56     0009                     	;# 
    57     000A                     	;# 
    58     000B                     	;# 
    59     000C                     	;# 
    60     000D                     	;# 
    61     000E                     	;# 
    62     000F                     	;# 
    63     0010                     	;# 
    64     0011                     	;# 
    65     0012                     	;# 
    66     0013                     	;# 
    67     0015                     	;# 
    68     0016                     	;# 
    69     0016                     	;# 
    70     0017                     	;# 
    71     0018                     	;# 
    72     0019                     	;# 
    73     001A                     	;# 
    74     001B                     	;# 
    75     001C                     	;# 
    76     001E                     	;# 
    77     001F                     	;# 
    78     008C                     	;# 
    79     008D                     	;# 
    80     008E                     	;# 
    81     008F                     	;# 
    82     0090                     	;# 
    83     0091                     	;# 
    84     0092                     	;# 
    85     0093                     	;# 
    86     0095                     	;# 
    87     0096                     	;# 
    88     0097                     	;# 
    89     0098                     	;# 
    90     0099                     	;# 
    91     009A                     	;# 
    92     009B                     	;# 
    93     009B                     	;# 
    94     009C                     	;# 
    95     009D                     	;# 
    96     009E                     	;# 
    97     010C                     	;# 
    98     010D                     	;# 
    99     010E                     	;# 
   100     010F                     	;# 
   101     0110                     	;# 
   102     0111                     	;# 
   103     0112                     	;# 
   104     0113                     	;# 
   105     0114                     	;# 
   106     0115                     	;# 
   107     0116                     	;# 
   108     0117                     	;# 
   109     0118                     	;# 
   110     0119                     	;# 
   111     011A                     	;# 
   112     011B                     	;# 
   113     011D                     	;# 
   114     018C                     	;# 
   115     018D                     	;# 
   116     018F                     	;# 
   117     0190                     	;# 
   118     0191                     	;# 
   119     0191                     	;# 
   120     0192                     	;# 
   121     0193                     	;# 
   122     0193                     	;# 
   123     0193                     	;# 
   124     0194                     	;# 
   125     0195                     	;# 
   126     0196                     	;# 
   127     0199                     	;# 
   128     019A                     	;# 
   129     019B                     	;# 
   130     019B                     	;# 
   131     019B                     	;# 
   132     019B                     	;# 
   133     019C                     	;# 
   134     019C                     	;# 
   135     019D                     	;# 
   136     019E                     	;# 
   137     019F                     	;# 
   138     020D                     	;# 
   139     0210                     	;# 
   140     0211                     	;# 
   141     0212                     	;# 
   142     0213                     	;# 
   143     0214                     	;# 
   144     0215                     	;# 
   145     0215                     	;# 
   146     0216                     	;# 
   147     0217                     	;# 
   148     0291                     	;# 
   149     0291                     	;# 
   150     0292                     	;# 
   151     0293                     	;# 
   152     0294                     	;# 
   153     0295                     	;# 
   154     0295                     	;# 
   155     0296                     	;# 
   156     0298                     	;# 
   157     0298                     	;# 
   158     0299                     	;# 
   159     029A                     	;# 
   160     029B                     	;# 
   161     029C                     	;# 
   162     029C                     	;# 
   163     029D                     	;# 
   164     029E                     	;# 
   165     029F                     	;# 
   166     0311                     	;# 
   167     0311                     	;# 
   168     0312                     	;# 
   169     0313                     	;# 
   170     0314                     	;# 
   171     0315                     	;# 
   172     0315                     	;# 
   173     0316                     	;# 
   174     0318                     	;# 
   175     0318                     	;# 
   176     0319                     	;# 
   177     031A                     	;# 
   178     031C                     	;# 
   179     031C                     	;# 
   180     031D                     	;# 
   181     031E                     	;# 
   182     0394                     	;# 
   183     0395                     	;# 
   184     0396                     	;# 
   185     0415                     	;# 
   186     0416                     	;# 
   187     0417                     	;# 
   188     041C                     	;# 
   189     041D                     	;# 
   190     041E                     	;# 
   191     0791                     	;# 
   192     0792                     	;# 
   193     0793                     	;# 
   194     0794                     	;# 
   195     0795                     	;# 
   196     0798                     	;# 
   197     0799                     	;# 
   198     079A                     	;# 
   199     07A0                     	;# 
   200     07A1                     	;# 
   201     07A2                     	;# 
   202     07A3                     	;# 
   203     07A4                     	;# 
   204     07A5                     	;# 
   205     07A6                     	;# 
   206     07A7                     	;# 
   207     07A8                     	;# 
   208     07A9                     	;# 
   209     07AA                     	;# 
   210     07AB                     	;# 
   211     0FE4                     	;# 
   212     0FE5                     	;# 
   213     0FE6                     	;# 
   214     0FE7                     	;# 
   215     0FE8                     	;# 
   216     0FE9                     	;# 
   217     0FEA                     	;# 
   218     0FEB                     	;# 
   219     0FED                     	;# 
   220     0FEE                     	;# 
   221     0FEF                     	;# 
   222     0000                     	;# 
   223     0001                     	;# 
   224     0002                     	;# 
   225     0003                     	;# 
   226     0004                     	;# 
   227     0005                     	;# 
   228     0006                     	;# 
   229     0007                     	;# 
   230     0008                     	;# 
   231     0009                     	;# 
   232     000A                     	;# 
   233     000B                     	;# 
   234     000C                     	;# 
   235     000D                     	;# 
   236     000E                     	;# 
   237     000F                     	;# 
   238     0010                     	;# 
   239     0011                     	;# 
   240     0012                     	;# 
   241     0013                     	;# 
   242     0015                     	;# 
   243     0016                     	;# 
   244     0016                     	;# 
   245     0017                     	;# 
   246     0018                     	;# 
   247     0019                     	;# 
   248     001A                     	;# 
   249     001B                     	;# 
   250     001C                     	;# 
   251     001E                     	;# 
   252     001F                     	;# 
   253     008C                     	;# 
   254     008D                     	;# 
   255     008E                     	;# 
   256     008F                     	;# 
   257     0090                     	;# 
   258     0091                     	;# 
   259     0092                     	;# 
   260     0093                     	;# 
   261     0095                     	;# 
   262     0096                     	;# 
   263     0097                     	;# 
   264     0098                     	;# 
   265     0099                     	;# 
   266     009A                     	;# 
   267     009B                     	;# 
   268     009B                     	;# 
   269     009C                     	;# 
   270     009D                     	;# 
   271     009E                     	;# 
   272     010C                     	;# 
   273     010D                     	;# 
   274     010E                     	;# 
   275     010F                     	;# 
   276     0110                     	;# 
   277     0111                     	;# 
   278     0112                     	;# 
   279     0113                     	;# 
   280     0114                     	;# 
   281     0115                     	;# 
   282     0116                     	;# 
   283     0117                     	;# 
   284     0118                     	;# 
   285     0119                     	;# 
   286     011A                     	;# 
   287     011B                     	;# 
   288     011D                     	;# 
   289     018C                     	;# 
   290     018D                     	;# 
   291     018F                     	;# 
   292     0190                     	;# 
   293     0191                     	;# 
   294     0191                     	;# 
   295     0192                     	;# 
   296     0193                     	;# 
   297     0193                     	;# 
   298     0193                     	;# 
   299     0194                     	;# 
   300     0195                     	;# 
   301     0196                     	;# 
   302     0199                     	;# 
   303     019A                     	;# 
   304     019B                     	;# 
   305     019B                     	;# 
   306     019B                     	;# 
   307     019B                     	;# 
   308     019C                     	;# 
   309     019C                     	;# 
   310     019D                     	;# 
   311     019E                     	;# 
   312     019F                     	;# 
   313     020D                     	;# 
   314     0210                     	;# 
   315     0211                     	;# 
   316     0212                     	;# 
   317     0213                     	;# 
   318     0214                     	;# 
   319     0215                     	;# 
   320     0215                     	;# 
   321     0216                     	;# 
   322     0217                     	;# 
   323     0291                     	;# 
   324     0291                     	;# 
   325     0292                     	;# 
   326     0293                     	;# 
   327     0294                     	;# 
   328     0295                     	;# 
   329     0295                     	;# 
   330     0296                     	;# 
   331     0298                     	;# 
   332     0298                     	;# 
   333     0299                     	;# 
   334     029A                     	;# 
   335     029B                     	;# 
   336     029C                     	;# 
   337     029C                     	;# 
   338     029D                     	;# 
   339     029E                     	;# 
   340     029F                     	;# 
   341     0311                     	;# 
   342     0311                     	;# 
   343     0312                     	;# 
   344     0313                     	;# 
   345     0314                     	;# 
   346     0315                     	;# 
   347     0315                     	;# 
   348     0316                     	;# 
   349     0318                     	;# 
   350     0318                     	;# 
   351     0319                     	;# 
   352     031A                     	;# 
   353     031C                     	;# 
   354     031C                     	;# 
   355     031D                     	;# 
   356     031E                     	;# 
   357     0394                     	;# 
   358     0395                     	;# 
   359     0396                     	;# 
   360     0415                     	;# 
   361     0416                     	;# 
   362     0417                     	;# 
   363     041C                     	;# 
   364     041D                     	;# 
   365     041E                     	;# 
   366     0791                     	;# 
   367     0792                     	;# 
   368     0793                     	;# 
   369     0794                     	;# 
   370     0795                     	;# 
   371     0798                     	;# 
   372     0799                     	;# 
   373     079A                     	;# 
   374     07A0                     	;# 
   375     07A1                     	;# 
   376     07A2                     	;# 
   377     07A3                     	;# 
   378     07A4                     	;# 
   379     07A5                     	;# 
   380     07A6                     	;# 
   381     07A7                     	;# 
   382     07A8                     	;# 
   383     07A9                     	;# 
   384     07AA                     	;# 
   385     07AB                     	;# 
   386     0FE4                     	;# 
   387     0FE5                     	;# 
   388     0FE6                     	;# 
   389     0FE7                     	;# 
   390     0FE8                     	;# 
   391     0FE9                     	;# 
   392     0FEA                     	;# 
   393     0FEB                     	;# 
   394     0FED                     	;# 
   395     0FEE                     	;# 
   396     0FEF                     	;# 
   397     0000                     	;# 
   398     0001                     	;# 
   399     0002                     	;# 
   400     0003                     	;# 
   401     0004                     	;# 
   402     0005                     	;# 
   403     0006                     	;# 
   404     0007                     	;# 
   405     0008                     	;# 
   406     0009                     	;# 
   407     000A                     	;# 
   408     000B                     	;# 
   409     000C                     	;# 
   410     000D                     	;# 
   411     000E                     	;# 
   412     000F                     	;# 
   413     0010                     	;# 
   414     0011                     	;# 
   415     0012                     	;# 
   416     0013                     	;# 
   417     0015                     	;# 
   418     0016                     	;# 
   419     0016                     	;# 
   420     0017                     	;# 
   421     0018                     	;# 
   422     0019                     	;# 
   423     001A                     	;# 
   424     001B                     	;# 
   425     001C                     	;# 
   426     001E                     	;# 
   427     001F                     	;# 
   428     008C                     	;# 
   429     008D                     	;# 
   430     008E                     	;# 
   431     008F                     	;# 
   432     0090                     	;# 
   433     0091                     	;# 
   434     0092                     	;# 
   435     0093                     	;# 
   436     0095                     	;# 
   437     0096                     	;# 
   438     0097                     	;# 
   439     0098                     	;# 
   440     0099                     	;# 
   441     009A                     	;# 
   442     009B                     	;# 
   443     009B                     	;# 
   444     009C                     	;# 
   445     009D                     	;# 
   446     009E                     	;# 
   447     010C                     	;# 
   448     010D                     	;# 
   449     010E                     	;# 
   450     010F                     	;# 
   451     0110                     	;# 
   452     0111                     	;# 
   453     0112                     	;# 
   454     0113                     	;# 
   455     0114                     	;# 
   456     0115                     	;# 
   457     0116                     	;# 
   458     0117                     	;# 
   459     0118                     	;# 
   460     0119                     	;# 
   461     011A                     	;# 
   462     011B                     	;# 
   463     011D                     	;# 
   464     018C                     	;# 
   465     018D                     	;# 
   466     018F                     	;# 
   467     0190                     	;# 
   468     0191                     	;# 
   469     0191                     	;# 
   470     0192                     	;# 
   471     0193                     	;# 
   472     0193                     	;# 
   473     0193                     	;# 
   474     0194                     	;# 
   475     0195                     	;# 
   476     0196                     	;# 
   477     0199                     	;# 
   478     019A                     	;# 
   479     019B                     	;# 
   480     019B                     	;# 
   481     019B                     	;# 
   482     019B                     	;# 
   483     019C                     	;# 
   484     019C                     	;# 
   485     019D                     	;# 
   486     019E                     	;# 
   487     019F                     	;# 
   488     020D                     	;# 
   489     0210                     	;# 
   490     0211                     	;# 
   491     0212                     	;# 
   492     0213                     	;# 
   493     0214                     	;# 
   494     0215                     	;# 
   495     0215                     	;# 
   496     0216                     	;# 
   497     0217                     	;# 
   498     0291                     	;# 
   499     0291                     	;# 
   500     0292                     	;# 
   501     0293                     	;# 
   502     0294                     	;# 
   503     0295                     	;# 
   504     0295                     	;# 
   505     0296                     	;# 
   506     0298                     	;# 
   507     0298                     	;# 
   508     0299                     	;# 
   509     029A                     	;# 
   510     029B                     	;# 
   511     029C                     	;# 
   512     029C                     	;# 
   513     029D                     	;# 
   514     029E                     	;# 
   515     029F                     	;# 
   516     0311                     	;# 
   517     0311                     	;# 
   518     0312                     	;# 
   519     0313                     	;# 
   520     0314                     	;# 
   521     0315                     	;# 
   522     0315                     	;# 
   523     0316                     	;# 
   524     0318                     	;# 
   525     0318                     	;# 
   526     0319                     	;# 
   527     031A                     	;# 
   528     031C                     	;# 
   529     031C                     	;# 
   530     031D                     	;# 
   531     031E                     	;# 
   532     0394                     	;# 
   533     0395                     	;# 
   534     0396                     	;# 
   535     0415                     	;# 
   536     0416                     	;# 
   537     0417                     	;# 
   538     041C                     	;# 
   539     041D                     	;# 
   540     041E                     	;# 
   541     0791                     	;# 
   542     0792                     	;# 
   543     0793                     	;# 
   544     0794                     	;# 
   545     0795                     	;# 
   546     0798                     	;# 
   547     0799                     	;# 
   548     079A                     	;# 
   549     07A0                     	;# 
   550     07A1                     	;# 
   551     07A2                     	;# 
   552     07A3                     	;# 
   553     07A4                     	;# 
   554     07A5                     	;# 
   555     07A6                     	;# 
   556     07A7                     	;# 
   557     07A8                     	;# 
   558     07A9                     	;# 
   559     07AA                     	;# 
   560     07AB                     	;# 
   561     0FE4                     	;# 
   562     0FE5                     	;# 
   563     0FE6                     	;# 
   564     0FE7                     	;# 
   565     0FE8                     	;# 
   566     0FE9                     	;# 
   567     0FEA                     	;# 
   568     0FEB                     	;# 
   569     0FED                     	;# 
   570     0FEE                     	;# 
   571     0FEF                     	;# 
   572     0000                     	;# 
   573     0001                     	;# 
   574     0002                     	;# 
   575     0003                     	;# 
   576     0004                     	;# 
   577     0005                     	;# 
   578     0006                     	;# 
   579     0007                     	;# 
   580     0008                     	;# 
   581     0009                     	;# 
   582     000A                     	;# 
   583     000B                     	;# 
   584     000C                     	;# 
   585     000D                     	;# 
   586     000E                     	;# 
   587     000F                     	;# 
   588     0010                     	;# 
   589     0011                     	;# 
   590     0012                     	;# 
   591     0013                     	;# 
   592     0015                     	;# 
   593     0016                     	;# 
   594     0016                     	;# 
   595     0017                     	;# 
   596     0018                     	;# 
   597     0019                     	;# 
   598     001A                     	;# 
   599     001B                     	;# 
   600     001C                     	;# 
   601     001E                     	;# 
   602     001F                     	;# 
   603     008C                     	;# 
   604     008D                     	;# 
   605     008E                     	;# 
   606     008F                     	;# 
   607     0090                     	;# 
   608     0091                     	;# 
   609     0092                     	;# 
   610     0093                     	;# 
   611     0095                     	;# 
   612     0096                     	;# 
   613     0097                     	;# 
   614     0098                     	;# 
   615     0099                     	;# 
   616     009A                     	;# 
   617     009B                     	;# 
   618     009B                     	;# 
   619     009C                     	;# 
   620     009D                     	;# 
   621     009E                     	;# 
   622     010C                     	;# 
   623     010D                     	;# 
   624     010E                     	;# 
   625     010F                     	;# 
   626     0110                     	;# 
   627     0111                     	;# 
   628     0112                     	;# 
   629     0113                     	;# 
   630     0114                     	;# 
   631     0115                     	;# 
   632     0116                     	;# 
   633     0117                     	;# 
   634     0118                     	;# 
   635     0119                     	;# 
   636     011A                     	;# 
   637     011B                     	;# 
   638     011D                     	;# 
   639     018C                     	;# 
   640     018D                     	;# 
   641     018F                     	;# 
   642     0190                     	;# 
   643     0191                     	;# 
   644     0191                     	;# 
   645     0192                     	;# 
   646     0193                     	;# 
   647     0193                     	;# 
   648     0193                     	;# 
   649     0194                     	;# 
   650     0195                     	;# 
   651     0196                     	;# 
   652     0199                     	;# 
   653     019A                     	;# 
   654     019B                     	;# 
   655     019B                     	;# 
   656     019B                     	;# 
   657     019B                     	;# 
   658     019C                     	;# 
   659     019C                     	;# 
   660     019D                     	;# 
   661     019E                     	;# 
   662     019F                     	;# 
   663     020D                     	;# 
   664     0210                     	;# 
   665     0211                     	;# 
   666     0212                     	;# 
   667     0213                     	;# 
   668     0214                     	;# 
   669     0215                     	;# 
   670     0215                     	;# 
   671     0216                     	;# 
   672     0217                     	;# 
   673     0291                     	;# 
   674     0291                     	;# 
   675     0292                     	;# 
   676     0293                     	;# 
   677     0294                     	;# 
   678     0295                     	;# 
   679     0295                     	;# 
   680     0296                     	;# 
   681     0298                     	;# 
   682     0298                     	;# 
   683     0299                     	;# 
   684     029A                     	;# 
   685     029B                     	;# 
   686     029C                     	;# 
   687     029C                     	;# 
   688     029D                     	;# 
   689     029E                     	;# 
   690     029F                     	;# 
   691     0311                     	;# 
   692     0311                     	;# 
   693     0312                     	;# 
   694     0313                     	;# 
   695     0314                     	;# 
   696     0315                     	;# 
   697     0315                     	;# 
   698     0316                     	;# 
   699     0318                     	;# 
   700     0318                     	;# 
   701     0319                     	;# 
   702     031A                     	;# 
   703     031C                     	;# 
   704     031C                     	;# 
   705     031D                     	;# 
   706     031E                     	;# 
   707     0394                     	;# 
   708     0395                     	;# 
   709     0396                     	;# 
   710     0415                     	;# 
   711     0416                     	;# 
   712     0417                     	;# 
   713     041C                     	;# 
   714     041D                     	;# 
   715     041E                     	;# 
   716     0791                     	;# 
   717     0792                     	;# 
   718     0793                     	;# 
   719     0794                     	;# 
   720     0795                     	;# 
   721     0798                     	;# 
   722     0799                     	;# 
   723     079A                     	;# 
   724     07A0                     	;# 
   725     07A1                     	;# 
   726     07A2                     	;# 
   727     07A3                     	;# 
   728     07A4                     	;# 
   729     07A5                     	;# 
   730     07A6                     	;# 
   731     07A7                     	;# 
   732     07A8                     	;# 
   733     07A9                     	;# 
   734     07AA                     	;# 
   735     07AB                     	;# 
   736     0FE4                     	;# 
   737     0FE5                     	;# 
   738     0FE6                     	;# 
   739     0FE7                     	;# 
   740     0FE8                     	;# 
   741     0FE9                     	;# 
   742     0FEA                     	;# 
   743     0FEB                     	;# 
   744     0FED                     	;# 
   745     0FEE                     	;# 
   746     0FEF                     	;# 
   747     000D                     _PORTBbits	set	13
   748     008E                     _TRISC	set	142
   749     008D                     _TRISBbits	set	141
   750     010E                     _LATC	set	270
   751     018D                     _ANSELBbits	set	397
   752                           
   753                           	psect	cinit
   754     07FC                     start_initialization:	
   755                           ; #config settings
   756                           
   757     07FC                     __initialization:
   758                           
   759                           ; Clear objects allocated to COMMON
   760     07FC  01FA               	clrf	__pbssCOMMON& (0+127)
   761     07FD                     end_of_initialization:	
   762                           ;End of C runtime variable initialization code
   763                           
   764     07FD                     __end_of__initialization:
   765     07FD  0020               	movlb	0
   766     07FE  3186  2E56         	ljmp	_main	;jump to C main() function
   767                           
   768                           	psect	bssCOMMON
   769     007A                     __pbssCOMMON:
   770     007A                     _dig:
   771     007A                     	ds	1
   772                           
   773                           	psect	cstackCOMMON
   774     0070                     __pcstackCOMMON:
   775     0070                     ?_logica_punto5:
   776     0070                     ??_logica_punto5:	
   777                           ; 1 bytes @ 0x0
   778                           
   779     0070                     ?_main:	
   780                           ; 1 bytes @ 0x0
   781                           
   782     0070                     ?_init_1:	
   783                           ; 1 bytes @ 0x0
   784                           
   785     0070                     ??_init_1:	
   786                           ; 1 bytes @ 0x0
   787                           
   788                           
   789                           ; 1 bytes @ 0x0
   790     0070                     	ds	2
   791     0072                     logica_punto5@i:
   792                           
   793                           ; 1 bytes @ 0x2
   794     0072                     	ds	1
   795     0073                     logica_punto5@i_130:
   796                           
   797                           ; 1 bytes @ 0x3
   798     0073                     	ds	1
   799     0074                     logica_punto5@i_131:
   800                           
   801                           ; 1 bytes @ 0x4
   802     0074                     	ds	1
   803     0075                     logica_punto5@i_132:
   804                           
   805                           ; 1 bytes @ 0x5
   806     0075                     	ds	1
   807     0076                     logica_punto5@i_133:
   808                           
   809                           ; 1 bytes @ 0x6
   810     0076                     	ds	1
   811     0077                     logica_punto5@i_134:
   812                           
   813                           ; 1 bytes @ 0x7
   814     0077                     	ds	1
   815     0078                     logica_punto5@i_135:
   816                           
   817                           ; 1 bytes @ 0x8
   818     0078                     	ds	1
   819     0079                     logica_punto5@i_136:
   820                           
   821                           ; 1 bytes @ 0x9
   822     0079                     	ds	1
   823     007A                     ??_main:
   824                           
   825                           	psect	maintext
   826     0656                     __pmaintext:	
   827                           ; 1 bytes @ 0xA
   828 ;;
   829 ;;Main: autosize = 0, tempsize = 0, incstack = 0, save=0
   830 ;;
   831 ;; *************** function _main *****************
   832 ;; Defined at:
   833 ;;		line 8 in file "main.c"
   834 ;; Parameters:    Size  Location     Type
   835 ;;		None
   836 ;; Auto vars:     Size  Location     Type
   837 ;;		None
   838 ;; Return value:  Size  Location     Type
   839 ;;                  1    wreg      void 
   840 ;; Registers used:
   841 ;;		wreg, status,2, status,0, pclath, cstack
   842 ;; Tracked objects:
   843 ;;		On entry : B1F/0
   844 ;;		On exit  : 0/0
   845 ;;		Unchanged: 0/0
   846 ;; Data sizes:     COMMON   BANK0   BANK1   BANK2   BANK3   BANK4   BANK5   BANK6   BANK7   BANK8   BANK9  BANK10  BANK1
      +1  BANK12
   847 ;;      Params:         0       0       0       0       0       0       0       0       0       0       0       0       
      +0       0
   848 ;;      Locals:         0       0       0       0       0       0       0       0       0       0       0       0       
      +0       0
   849 ;;      Temps:          0       0       0       0       0       0       0       0       0       0       0       0       
      +0       0
   850 ;;      Totals:         0       0       0       0       0       0       0       0       0       0       0       0       
      +0       0
   851 ;;Total ram usage:        0 bytes
   852 ;; Hardware stack levels required when called: 2
   853 ;; This function calls:
   854 ;;		_logica_punto5
   855 ;; This function is called by:
   856 ;;		Startup code after reset
   857 ;; This function uses a non-reentrant model
   858 ;;
   859                           
   860     0656                     _main:	
   861                           ;psect for function _main
   862                           
   863     0656                     l846:	
   864                           ;incstack = 0
   865                           ; Regs used in _main: [wreg+status,2+status,0+pclath+cstack]
   866                           
   867                           
   868                           ;main.c: 10:    logica_punto5();
   869     0656  3186  2671  3186   	fcall	_logica_punto5
   870     0659                     l7:	
   871                           ;main.c: 11:           while(1){
   872                           
   873     0659                     l8:	
   874                           ;main.c: 13:     }
   875                           
   876     0659  2E59               	goto	l7
   877     065A  3180  2802         	ljmp	start
   878     065C                     __end_of_main:
   879                           
   880                           	psect	text1
   881     0671                     __ptext1:	
   882 ;; *************** function _logica_punto5 *****************
   883 ;; Defined at:
   884 ;;		line 26 in file "punt5.c"
   885 ;; Parameters:    Size  Location     Type
   886 ;;		None
   887 ;; Auto vars:     Size  Location     Type
   888 ;;  i               1    0        unsigned char 
   889 ;;  i               1    9[COMMON] unsigned char 
   890 ;;  i               1    8[COMMON] unsigned char 
   891 ;;  i               1    7[COMMON] unsigned char 
   892 ;;  i               1    6[COMMON] char 
   893 ;;  i               1    5[COMMON] unsigned char 
   894 ;;  i               1    4[COMMON] unsigned char 
   895 ;;  i               1    3[COMMON] unsigned char 
   896 ;;  i               1    2[COMMON] char 
   897 ;; Return value:  Size  Location     Type
   898 ;;                  1    wreg      void 
   899 ;; Registers used:
   900 ;;		wreg, status,2, status,0, pclath, cstack
   901 ;; Tracked objects:
   902 ;;		On entry : 0/0
   903 ;;		On exit  : 0/0
   904 ;;		Unchanged: 0/0
   905 ;; Data sizes:     COMMON   BANK0   BANK1   BANK2   BANK3   BANK4   BANK5   BANK6   BANK7   BANK8   BANK9  BANK10  BANK1
      +1  BANK12
   906 ;;      Params:         0       0       0       0       0       0       0       0       0       0       0       0       
      +0       0
   907 ;;      Locals:         8       0       0       0       0       0       0       0       0       0       0       0       
      +0       0
   908 ;;      Temps:          2       0       0       0       0       0       0       0       0       0       0       0       
      +0       0
   909 ;;      Totals:        10       0       0       0       0       0       0       0       0       0       0       0       
      +0       0
   910 ;;Total ram usage:       10 bytes
   911 ;; Hardware stack levels used: 1
   912 ;; Hardware stack levels required when called: 1
   913 ;; This function calls:
   914 ;;		_init_1
   915 ;; This function is called by:
   916 ;;		_main
   917 ;; This function uses a non-reentrant model
   918 ;;
   919                           
   920     0671                     _logica_punto5:	
   921                           ;psect for function _logica_punto5
   922                           
   923     0671                     l680:	
   924                           ;incstack = 0
   925                           ; Regs used in _logica_punto5: [wreg+status,2+status,0+pclath+cstack]
   926                           
   927                           
   928                           ;punt5.c: 27:     init_1();
   929     0671  3186  265C  3186   	fcall	_init_1
   930     0674                     l682:
   931                           
   932                           ;punt5.c: 31:     if(PORTBbits.RB0==1 && PORTBbits.RB1==0 && PORTBbits.RB2==0 && PORTBbi
      +                          ts.RB3==0){
   933     0674  0020               	movlb	0	; select bank0
   934     0675  1C0D               	btfss	13,0	;volatile
   935     0676  2E78               	goto	u11
   936     0677  2E79               	goto	u10
   937     0678                     u11:
   938     0678  2EA9               	goto	l31
   939     0679                     u10:
   940     0679                     l684:
   941     0679  188D               	btfsc	13,1	;volatile
   942     067A  2E7C               	goto	u21
   943     067B  2E7D               	goto	u20
   944     067C                     u21:
   945     067C  2EA9               	goto	l31
   946     067D                     u20:
   947     067D                     l686:
   948     067D  190D               	btfsc	13,2	;volatile
   949     067E  2E80               	goto	u31
   950     067F  2E81               	goto	u30
   951     0680                     u31:
   952     0680  2EA9               	goto	l31
   953     0681                     u30:
   954     0681                     l688:
   955     0681  198D               	btfsc	13,3	;volatile
   956     0682  2E84               	goto	u41
   957     0683  2E85               	goto	u40
   958     0684                     u41:
   959     0684  2EA9               	goto	l31
   960     0685                     u40:
   961     0685                     l690:
   962                           
   963                           ;punt5.c: 32:          for(signed char i=7; i>-1; i--){
   964     0685  3007               	movlw	7
   965     0686  00F2               	movwf	logica_punto5@i
   966     0687                     l696:
   967                           
   968                           ;punt5.c: 33:                 LATC |= (1<<i);
   969     0687  3001               	movlw	1
   970     0688  00F0               	movwf	??_logica_punto5
   971     0689  0A72               	incf	logica_punto5@i,w
   972     068A  2E8C               	goto	u54
   973     068B                     u55:
   974     068B  35F0               	lslf	??_logica_punto5,f
   975     068C                     u54:
   976     068C  0B89               	decfsz	9,f
   977     068D  2E8B               	goto	u55
   978     068E  0870               	movf	??_logica_punto5,w
   979     068F  00F1               	movwf	??_logica_punto5+1
   980     0690  0871               	movf	??_logica_punto5+1,w
   981     0691  0022               	movlb	2	; select bank2
   982     0692  048E               	iorwf	14,f	;volatile
   983     0693                     l698:
   984                           
   985                           ;punt5.c: 34:                 _delay((unsigned long)((200)*(20000000UL/4000.0)));
   986     0693  3006               	movlw	6
   987     0694  00F1               	movwf	??_logica_punto5+1
   988     0695  3013               	movlw	19
   989     0696  00F0               	movwf	??_logica_punto5
   990     0697  30AE               	movlw	174
   991     0698                     u447:
   992     0698  0B89               	decfsz	9,f
   993     0699  2E98               	goto	u447
   994     069A  0BF0               	decfsz	??_logica_punto5,f
   995     069B  2E98               	goto	u447
   996     069C  0BF1               	decfsz	??_logica_punto5+1,f
   997     069D  2E98               	goto	u447
   998     069E                     l700:
   999                           
  1000                           ;punt5.c: 35:             }
  1001     069E  30FF               	movlw	255
  1002     069F  00F0               	movwf	??_logica_punto5
  1003     06A0  0870               	movf	??_logica_punto5,w
  1004     06A1  07F2               	addwf	logica_punto5@i,f
  1005     06A2                     l702:
  1006     06A2  1FF2               	btfss	logica_punto5@i,7
  1007     06A3  2EA5               	goto	u61
  1008     06A4  2EA6               	goto	u60
  1009     06A5                     u61:
  1010     06A5  2E87               	goto	l696
  1011     06A6                     u60:
  1012     06A6                     l704:
  1013                           
  1014                           ;punt5.c: 36:            LATC=0x00;
  1015     06A6  0022               	movlb	2	; select bank2
  1016     06A7  018E               	clrf	14	;volatile
  1017                           
  1018                           ;punt5.c: 38:     }
  1019     06A8  2E74               	goto	l682
  1020     06A9                     l31:	
  1021                           ;punt5.c: 39:     else if(PORTBbits.RB0==0 && PORTBbits.RB1==1 && PORTBbits.RB2==0 && PO
      +                          RTBbits.RB3==0 ){
  1022                           
  1023     06A9  180D               	btfsc	13,0	;volatile
  1024     06AA  2EAC               	goto	u71
  1025     06AB  2EAD               	goto	u70
  1026     06AC                     u71:
  1027     06AC  2EDC               	goto	l35
  1028     06AD                     u70:
  1029     06AD                     l706:
  1030     06AD  1C8D               	btfss	13,1	;volatile
  1031     06AE  2EB0               	goto	u81
  1032     06AF  2EB1               	goto	u80
  1033     06B0                     u81:
  1034     06B0  2EDC               	goto	l35
  1035     06B1                     u80:
  1036     06B1                     l708:
  1037     06B1  190D               	btfsc	13,2	;volatile
  1038     06B2  2EB4               	goto	u91
  1039     06B3  2EB5               	goto	u90
  1040     06B4                     u91:
  1041     06B4  2EDC               	goto	l35
  1042     06B5                     u90:
  1043     06B5                     l710:
  1044     06B5  198D               	btfsc	13,3	;volatile
  1045     06B6  2EB8               	goto	u101
  1046     06B7  2EB9               	goto	u100
  1047     06B8                     u101:
  1048     06B8  2EDC               	goto	l35
  1049     06B9                     u100:
  1050     06B9                     l712:
  1051                           
  1052                           ;punt5.c: 40:          for(char i=0; i<8; i++){
  1053     06B9  01F3               	clrf	logica_punto5@i_130
  1054     06BA                     l718:
  1055                           
  1056                           ;punt5.c: 41:                 LATC |= (1<<i);
  1057     06BA  3001               	movlw	1
  1058     06BB  00F0               	movwf	??_logica_punto5
  1059     06BC  0A73               	incf	logica_punto5@i_130,w
  1060     06BD  2EBF               	goto	u114
  1061     06BE                     u115:
  1062     06BE  35F0               	lslf	??_logica_punto5,f
  1063     06BF                     u114:
  1064     06BF  0B89               	decfsz	9,f
  1065     06C0  2EBE               	goto	u115
  1066     06C1  0870               	movf	??_logica_punto5,w
  1067     06C2  00F1               	movwf	??_logica_punto5+1
  1068     06C3  0871               	movf	??_logica_punto5+1,w
  1069     06C4  0022               	movlb	2	; select bank2
  1070     06C5  048E               	iorwf	14,f	;volatile
  1071     06C6                     l720:
  1072                           
  1073                           ;punt5.c: 42:                 _delay((unsigned long)((200)*(20000000UL/4000.0)));
  1074     06C6  3006               	movlw	6
  1075     06C7  00F1               	movwf	??_logica_punto5+1
  1076     06C8  3013               	movlw	19
  1077     06C9  00F0               	movwf	??_logica_punto5
  1078     06CA  30AE               	movlw	174
  1079     06CB                     u457:
  1080     06CB  0B89               	decfsz	9,f
  1081     06CC  2ECB               	goto	u457
  1082     06CD  0BF0               	decfsz	??_logica_punto5,f
  1083     06CE  2ECB               	goto	u457
  1084     06CF  0BF1               	decfsz	??_logica_punto5+1,f
  1085     06D0  2ECB               	goto	u457
  1086     06D1                     l722:
  1087                           
  1088                           ;punt5.c: 43:             }
  1089     06D1  3001               	movlw	1
  1090     06D2  00F0               	movwf	??_logica_punto5
  1091     06D3  0870               	movf	??_logica_punto5,w
  1092     06D4  07F3               	addwf	logica_punto5@i_130,f
  1093     06D5  3008               	movlw	8
  1094     06D6  0273               	subwf	logica_punto5@i_130,w
  1095     06D7  1C03               	skipc
  1096     06D8  2EDA               	goto	u121
  1097     06D9  2EDB               	goto	u120
  1098     06DA                     u121:
  1099     06DA  2EBA               	goto	l718
  1100     06DB                     u120:
  1101     06DB  2EA6               	goto	l704
  1102     06DC                     l35:	
  1103                           ;punt5.c: 47:     else if(PORTBbits.RB0==0 && PORTBbits.RB1==0 && PORTBbits.RB2== 1 && P
      +                          ORTBbits.RB3==0){
  1104                           
  1105     06DC  180D               	btfsc	13,0	;volatile
  1106     06DD  2EDF               	goto	u131
  1107     06DE  2EE0               	goto	u130
  1108     06DF                     u131:
  1109     06DF  2F0E               	goto	l39
  1110     06E0                     u130:
  1111     06E0                     l726:
  1112     06E0  188D               	btfsc	13,1	;volatile
  1113     06E1  2EE3               	goto	u141
  1114     06E2  2EE4               	goto	u140
  1115     06E3                     u141:
  1116     06E3  2F0E               	goto	l39
  1117     06E4                     u140:
  1118     06E4                     l728:
  1119     06E4  1D0D               	btfss	13,2	;volatile
  1120     06E5  2EE7               	goto	u151
  1121     06E6  2EE8               	goto	u150
  1122     06E7                     u151:
  1123     06E7  2F0E               	goto	l39
  1124     06E8                     u150:
  1125     06E8                     l730:
  1126     06E8  198D               	btfsc	13,3	;volatile
  1127     06E9  2EEB               	goto	u161
  1128     06EA  2EEC               	goto	u160
  1129     06EB                     u161:
  1130     06EB  2F0E               	goto	l39
  1131     06EC                     u160:
  1132     06EC                     l732:
  1133                           
  1134                           ;punt5.c: 48:          for(char i=6; i>0; i=i-2){
  1135     06EC  3006               	movlw	6
  1136     06ED  00F4               	movwf	logica_punto5@i_131
  1137     06EE                     l738:
  1138                           
  1139                           ;punt5.c: 49:                 LATC |= (1<<i);
  1140     06EE  3001               	movlw	1
  1141     06EF  00F0               	movwf	??_logica_punto5
  1142     06F0  0A74               	incf	logica_punto5@i_131,w
  1143     06F1  2EF3               	goto	u174
  1144     06F2                     u175:
  1145     06F2  35F0               	lslf	??_logica_punto5,f
  1146     06F3                     u174:
  1147     06F3  0B89               	decfsz	9,f
  1148     06F4  2EF2               	goto	u175
  1149     06F5  0870               	movf	??_logica_punto5,w
  1150     06F6  00F1               	movwf	??_logica_punto5+1
  1151     06F7  0871               	movf	??_logica_punto5+1,w
  1152     06F8  0022               	movlb	2	; select bank2
  1153     06F9  048E               	iorwf	14,f	;volatile
  1154     06FA                     l740:
  1155                           
  1156                           ;punt5.c: 50:                 _delay((unsigned long)((200)*(20000000UL/4000.0)));
  1157     06FA  3006               	movlw	6
  1158     06FB  00F1               	movwf	??_logica_punto5+1
  1159     06FC  3013               	movlw	19
  1160     06FD  00F0               	movwf	??_logica_punto5
  1161     06FE  30AE               	movlw	174
  1162     06FF                     u467:
  1163     06FF  0B89               	decfsz	9,f
  1164     0700  2EFF               	goto	u467
  1165     0701  0BF0               	decfsz	??_logica_punto5,f
  1166     0702  2EFF               	goto	u467
  1167     0703  0BF1               	decfsz	??_logica_punto5+1,f
  1168     0704  2EFF               	goto	u467
  1169     0705                     l742:
  1170                           
  1171                           ;punt5.c: 51:             }
  1172     0705  0874               	movf	logica_punto5@i_131,w
  1173     0706  3EFE               	addlw	254
  1174     0707  00F4               	movwf	logica_punto5@i_131
  1175     0708                     l744:
  1176     0708  0874               	movf	logica_punto5@i_131,w
  1177     0709  1D03               	btfss	3,2
  1178     070A  2F0C               	goto	u181
  1179     070B  2F0D               	goto	u180
  1180     070C                     u181:
  1181     070C  2EEE               	goto	l738
  1182     070D                     u180:
  1183     070D  2EA6               	goto	l704
  1184     070E                     l39:	
  1185                           ;punt5.c: 55:     else if(PORTBbits.RB0==0 && PORTBbits.RB1==0 && PORTBbits.RB2==0 && PO
      +                          RTBbits.RB3==1){
  1186                           
  1187     070E  180D               	btfsc	13,0	;volatile
  1188     070F  2F11               	goto	u191
  1189     0710  2F12               	goto	u190
  1190     0711                     u191:
  1191     0711  2F41               	goto	l43
  1192     0712                     u190:
  1193     0712                     l748:
  1194     0712  188D               	btfsc	13,1	;volatile
  1195     0713  2F15               	goto	u201
  1196     0714  2F16               	goto	u200
  1197     0715                     u201:
  1198     0715  2F41               	goto	l43
  1199     0716                     u200:
  1200     0716                     l750:
  1201     0716  190D               	btfsc	13,2	;volatile
  1202     0717  2F19               	goto	u211
  1203     0718  2F1A               	goto	u210
  1204     0719                     u211:
  1205     0719  2F41               	goto	l43
  1206     071A                     u210:
  1207     071A                     l752:
  1208     071A  1D8D               	btfss	13,3	;volatile
  1209     071B  2F1D               	goto	u221
  1210     071C  2F1E               	goto	u220
  1211     071D                     u221:
  1212     071D  2F41               	goto	l43
  1213     071E                     u220:
  1214     071E                     l754:
  1215                           
  1216                           ;punt5.c: 56:          for(char i=2; i<8; i=i+2){
  1217     071E  3002               	movlw	2
  1218     071F  00F5               	movwf	logica_punto5@i_132
  1219     0720                     l758:
  1220                           
  1221                           ;punt5.c: 57:                 LATC |= (1<<i);
  1222     0720  3001               	movlw	1
  1223     0721  00F0               	movwf	??_logica_punto5
  1224     0722  0A75               	incf	logica_punto5@i_132,w
  1225     0723  2F25               	goto	u234
  1226     0724                     u235:
  1227     0724  35F0               	lslf	??_logica_punto5,f
  1228     0725                     u234:
  1229     0725  0B89               	decfsz	9,f
  1230     0726  2F24               	goto	u235
  1231     0727  0870               	movf	??_logica_punto5,w
  1232     0728  00F1               	movwf	??_logica_punto5+1
  1233     0729  0871               	movf	??_logica_punto5+1,w
  1234     072A  0022               	movlb	2	; select bank2
  1235     072B  048E               	iorwf	14,f	;volatile
  1236     072C                     l760:
  1237                           
  1238                           ;punt5.c: 58:                 _delay((unsigned long)((200)*(20000000UL/4000.0)));
  1239     072C  3006               	movlw	6
  1240     072D  00F1               	movwf	??_logica_punto5+1
  1241     072E  3013               	movlw	19
  1242     072F  00F0               	movwf	??_logica_punto5
  1243     0730  30AE               	movlw	174
  1244     0731                     u477:
  1245     0731  0B89               	decfsz	9,f
  1246     0732  2F31               	goto	u477
  1247     0733  0BF0               	decfsz	??_logica_punto5,f
  1248     0734  2F31               	goto	u477
  1249     0735  0BF1               	decfsz	??_logica_punto5+1,f
  1250     0736  2F31               	goto	u477
  1251     0737                     l762:
  1252                           
  1253                           ;punt5.c: 59:             }
  1254     0737  0875               	movf	logica_punto5@i_132,w
  1255     0738  3E02               	addlw	2
  1256     0739  00F5               	movwf	logica_punto5@i_132
  1257     073A  3008               	movlw	8
  1258     073B  0275               	subwf	logica_punto5@i_132,w
  1259     073C  1C03               	skipc
  1260     073D  2F3F               	goto	u241
  1261     073E  2F40               	goto	u240
  1262     073F                     u241:
  1263     073F  2F20               	goto	l758
  1264     0740                     u240:
  1265     0740  2EA6               	goto	l704
  1266     0741                     l43:	
  1267                           ;punt5.c: 63:     else if(PORTBbits.RB0==1 && PORTBbits.RB1==1){
  1268                           
  1269     0741  1C0D               	btfss	13,0	;volatile
  1270     0742  2F44               	goto	u251
  1271     0743  2F45               	goto	u250
  1272     0744                     u251:
  1273     0744  2F6D               	goto	l47
  1274     0745                     u250:
  1275     0745                     l766:
  1276     0745  1C8D               	btfss	13,1	;volatile
  1277     0746  2F48               	goto	u261
  1278     0747  2F49               	goto	u260
  1279     0748                     u261:
  1280     0748  2F6D               	goto	l47
  1281     0749                     u260:
  1282     0749                     l768:
  1283                           
  1284                           ;punt5.c: 64:          for(signed char i=7; i>0; i=i-2){
  1285     0749  3007               	movlw	7
  1286     074A  00F6               	movwf	logica_punto5@i_133
  1287     074B                     l772:
  1288                           
  1289                           ;punt5.c: 65:                 LATC |= (1<<i);
  1290     074B  3001               	movlw	1
  1291     074C  00F0               	movwf	??_logica_punto5
  1292     074D  0A76               	incf	logica_punto5@i_133,w
  1293     074E  2F50               	goto	u274
  1294     074F                     u275:
  1295     074F  35F0               	lslf	??_logica_punto5,f
  1296     0750                     u274:
  1297     0750  0B89               	decfsz	9,f
  1298     0751  2F4F               	goto	u275
  1299     0752  0870               	movf	??_logica_punto5,w
  1300     0753  00F1               	movwf	??_logica_punto5+1
  1301     0754  0871               	movf	??_logica_punto5+1,w
  1302     0755  0022               	movlb	2	; select bank2
  1303     0756  048E               	iorwf	14,f	;volatile
  1304     0757                     l774:
  1305                           
  1306                           ;punt5.c: 66:                 _delay((unsigned long)((200)*(20000000UL/4000.0)));
  1307     0757  3006               	movlw	6
  1308     0758  00F1               	movwf	??_logica_punto5+1
  1309     0759  3013               	movlw	19
  1310     075A  00F0               	movwf	??_logica_punto5
  1311     075B  30AE               	movlw	174
  1312     075C                     u487:
  1313     075C  0B89               	decfsz	9,f
  1314     075D  2F5C               	goto	u487
  1315     075E  0BF0               	decfsz	??_logica_punto5,f
  1316     075F  2F5C               	goto	u487
  1317     0760  0BF1               	decfsz	??_logica_punto5+1,f
  1318     0761  2F5C               	goto	u487
  1319     0762                     l776:
  1320                           
  1321                           ;punt5.c: 67:             }
  1322     0762  0876               	movf	logica_punto5@i_133,w
  1323     0763  3EFE               	addlw	-2
  1324     0764  00F6               	movwf	logica_punto5@i_133
  1325     0765  0876               	movf	logica_punto5@i_133,w
  1326     0766  3A80               	xorlw	128
  1327     0767  3E7F               	addlw	-129
  1328     0768  1803               	skipnc
  1329     0769  2F6B               	goto	u281
  1330     076A  2F6C               	goto	u280
  1331     076B                     u281:
  1332     076B  2F4B               	goto	l772
  1333     076C                     u280:
  1334     076C  2EA6               	goto	l704
  1335     076D                     l47:	
  1336                           ;punt5.c: 70:     else if(PORTBbits.RB0==1 && PORTBbits.RB2==1){
  1337                           
  1338     076D  1C0D               	btfss	13,0	;volatile
  1339     076E  2F70               	goto	u291
  1340     076F  2F71               	goto	u290
  1341     0770                     u291:
  1342     0770  2F98               	goto	l51
  1343     0771                     u290:
  1344     0771                     l780:
  1345     0771  1D0D               	btfss	13,2	;volatile
  1346     0772  2F74               	goto	u301
  1347     0773  2F75               	goto	u300
  1348     0774                     u301:
  1349     0774  2F98               	goto	l51
  1350     0775                     u300:
  1351     0775                     l782:
  1352                           
  1353                           ;punt5.c: 71:          for(char i=1; i<8; i=i+2){
  1354     0775  01F7               	clrf	logica_punto5@i_134
  1355     0776  0AF7               	incf	logica_punto5@i_134,f
  1356     0777                     l788:
  1357                           
  1358                           ;punt5.c: 72:                 LATC |= (1<<i);
  1359     0777  3001               	movlw	1
  1360     0778  00F0               	movwf	??_logica_punto5
  1361     0779  0A77               	incf	logica_punto5@i_134,w
  1362     077A  2F7C               	goto	u314
  1363     077B                     u315:
  1364     077B  35F0               	lslf	??_logica_punto5,f
  1365     077C                     u314:
  1366     077C  0B89               	decfsz	9,f
  1367     077D  2F7B               	goto	u315
  1368     077E  0870               	movf	??_logica_punto5,w
  1369     077F  00F1               	movwf	??_logica_punto5+1
  1370     0780  0871               	movf	??_logica_punto5+1,w
  1371     0781  0022               	movlb	2	; select bank2
  1372     0782  048E               	iorwf	14,f	;volatile
  1373     0783                     l790:
  1374                           
  1375                           ;punt5.c: 73:                 _delay((unsigned long)((200)*(20000000UL/4000.0)));
  1376     0783  3006               	movlw	6
  1377     0784  00F1               	movwf	??_logica_punto5+1
  1378     0785  3013               	movlw	19
  1379     0786  00F0               	movwf	??_logica_punto5
  1380     0787  30AE               	movlw	174
  1381     0788                     u497:
  1382     0788  0B89               	decfsz	9,f
  1383     0789  2F88               	goto	u497
  1384     078A  0BF0               	decfsz	??_logica_punto5,f
  1385     078B  2F88               	goto	u497
  1386     078C  0BF1               	decfsz	??_logica_punto5+1,f
  1387     078D  2F88               	goto	u497
  1388     078E                     l792:
  1389                           
  1390                           ;punt5.c: 74:             }
  1391     078E  0877               	movf	logica_punto5@i_134,w
  1392     078F  3E02               	addlw	2
  1393     0790  00F7               	movwf	logica_punto5@i_134
  1394     0791  3008               	movlw	8
  1395     0792  0277               	subwf	logica_punto5@i_134,w
  1396     0793  1C03               	skipc
  1397     0794  2F96               	goto	u321
  1398     0795  2F97               	goto	u320
  1399     0796                     u321:
  1400     0796  2F77               	goto	l788
  1401     0797                     u320:
  1402     0797  2EA6               	goto	l704
  1403     0798                     l51:	
  1404                           ;punt5.c: 77:     else if(PORTBbits.RB1==1 && PORTBbits.RB2==1){
  1405                           
  1406     0798  1C8D               	btfss	13,1	;volatile
  1407     0799  2F9B               	goto	u331
  1408     079A  2F9C               	goto	u330
  1409     079B                     u331:
  1410     079B  2FC2               	goto	l55
  1411     079C                     u330:
  1412     079C                     l796:
  1413     079C  1D0D               	btfss	13,2	;volatile
  1414     079D  2F9F               	goto	u341
  1415     079E  2FA0               	goto	u340
  1416     079F                     u341:
  1417     079F  2FC2               	goto	l55
  1418     07A0                     u340:
  1419     07A0                     l798:
  1420                           
  1421                           ;punt5.c: 78:          for(char i=7; i>0; i=i-2){
  1422     07A0  3007               	movlw	7
  1423     07A1  00F8               	movwf	logica_punto5@i_135
  1424     07A2                     l804:
  1425                           
  1426                           ;punt5.c: 79:                 LATC |= (1<<i);
  1427     07A2  3001               	movlw	1
  1428     07A3  00F0               	movwf	??_logica_punto5
  1429     07A4  0A78               	incf	logica_punto5@i_135,w
  1430     07A5  2FA7               	goto	u354
  1431     07A6                     u355:
  1432     07A6  35F0               	lslf	??_logica_punto5,f
  1433     07A7                     u354:
  1434     07A7  0B89               	decfsz	9,f
  1435     07A8  2FA6               	goto	u355
  1436     07A9  0870               	movf	??_logica_punto5,w
  1437     07AA  00F1               	movwf	??_logica_punto5+1
  1438     07AB  0871               	movf	??_logica_punto5+1,w
  1439     07AC  0022               	movlb	2	; select bank2
  1440     07AD  048E               	iorwf	14,f	;volatile
  1441     07AE                     l806:
  1442                           
  1443                           ;punt5.c: 80:                 _delay((unsigned long)((200)*(20000000UL/4000.0)));
  1444     07AE  3006               	movlw	6
  1445     07AF  00F1               	movwf	??_logica_punto5+1
  1446     07B0  3013               	movlw	19
  1447     07B1  00F0               	movwf	??_logica_punto5
  1448     07B2  30AE               	movlw	174
  1449     07B3                     u507:
  1450     07B3  0B89               	decfsz	9,f
  1451     07B4  2FB3               	goto	u507
  1452     07B5  0BF0               	decfsz	??_logica_punto5,f
  1453     07B6  2FB3               	goto	u507
  1454     07B7  0BF1               	decfsz	??_logica_punto5+1,f
  1455     07B8  2FB3               	goto	u507
  1456     07B9                     l808:
  1457                           
  1458                           ;punt5.c: 81:             }
  1459     07B9  0878               	movf	logica_punto5@i_135,w
  1460     07BA  3EFE               	addlw	254
  1461     07BB  00F8               	movwf	logica_punto5@i_135
  1462     07BC                     l810:
  1463     07BC  0878               	movf	logica_punto5@i_135,w
  1464     07BD  1D03               	btfss	3,2
  1465     07BE  2FC0               	goto	u361
  1466     07BF  2FC1               	goto	u360
  1467     07C0                     u361:
  1468     07C0  2FA2               	goto	l804
  1469     07C1                     u360:
  1470     07C1  2EA6               	goto	l704
  1471     07C2                     l55:	
  1472                           ;punt5.c: 84:     else if((PORTBbits.RB1==1 && PORTBbits.RB2==1) && PORTBbits.RB0==1){
  1473                           
  1474     07C2  1C8D               	btfss	13,1	;volatile
  1475     07C3  2FC5               	goto	u371
  1476     07C4  2FC6               	goto	u370
  1477     07C5                     u371:
  1478     07C5  2FF1               	goto	l59
  1479     07C6                     u370:
  1480     07C6                     l814:
  1481     07C6  1D0D               	btfss	13,2	;volatile
  1482     07C7  2FC9               	goto	u381
  1483     07C8  2FCA               	goto	u380
  1484     07C9                     u381:
  1485     07C9  2FF1               	goto	l59
  1486     07CA                     u380:
  1487     07CA                     l816:
  1488     07CA  1C0D               	btfss	13,0	;volatile
  1489     07CB  2FCD               	goto	u391
  1490     07CC  2FCE               	goto	u390
  1491     07CD                     u391:
  1492     07CD  2FF1               	goto	l59
  1493     07CE                     u390:
  1494     07CE                     l818:
  1495                           
  1496                           ;punt5.c: 85:          for(char i=7; i>3; i=i-2){
  1497     07CE  3007               	movlw	7
  1498     07CF  00F9               	movwf	logica_punto5@i_136
  1499     07D0                     l822:
  1500                           
  1501                           ;punt5.c: 86:                 LATC |= (1<<i);
  1502     07D0  3001               	movlw	1
  1503     07D1  00F0               	movwf	??_logica_punto5
  1504     07D2  0A79               	incf	logica_punto5@i_136,w
  1505     07D3  2FD5               	goto	u404
  1506     07D4                     u405:
  1507     07D4  35F0               	lslf	??_logica_punto5,f
  1508     07D5                     u404:
  1509     07D5  0B89               	decfsz	9,f
  1510     07D6  2FD4               	goto	u405
  1511     07D7  0870               	movf	??_logica_punto5,w
  1512     07D8  00F1               	movwf	??_logica_punto5+1
  1513     07D9  0871               	movf	??_logica_punto5+1,w
  1514     07DA  0022               	movlb	2	; select bank2
  1515     07DB  048E               	iorwf	14,f	;volatile
  1516     07DC                     l824:
  1517                           
  1518                           ;punt5.c: 87:                 _delay((unsigned long)((200)*(20000000UL/4000.0)));
  1519     07DC  3006               	movlw	6
  1520     07DD  00F1               	movwf	??_logica_punto5+1
  1521     07DE  3013               	movlw	19
  1522     07DF  00F0               	movwf	??_logica_punto5
  1523     07E0  30AE               	movlw	174
  1524     07E1                     u517:
  1525     07E1  0B89               	decfsz	9,f
  1526     07E2  2FE1               	goto	u517
  1527     07E3  0BF0               	decfsz	??_logica_punto5,f
  1528     07E4  2FE1               	goto	u517
  1529     07E5  0BF1               	decfsz	??_logica_punto5+1,f
  1530     07E6  2FE1               	goto	u517
  1531     07E7                     l826:
  1532                           
  1533                           ;punt5.c: 88:             }
  1534     07E7  0879               	movf	logica_punto5@i_136,w
  1535     07E8  3EFE               	addlw	254
  1536     07E9  00F9               	movwf	logica_punto5@i_136
  1537     07EA  3004               	movlw	4
  1538     07EB  0279               	subwf	logica_punto5@i_136,w
  1539     07EC  1803               	skipnc
  1540     07ED  2FEF               	goto	u411
  1541     07EE  2FF0               	goto	u410
  1542     07EF                     u411:
  1543     07EF  2FD0               	goto	l822
  1544     07F0                     u410:
  1545     07F0  2EA6               	goto	l704
  1546     07F1                     l59:	
  1547                           ;punt5.c: 91:     else if(PORTBbits.RB0==1 && PORTBbits.RB3==1){
  1548                           
  1549     07F1  1C0D               	btfss	13,0	;volatile
  1550     07F2  2FF4               	goto	u421
  1551     07F3  2FF5               	goto	u420
  1552     07F4                     u421:
  1553     07F4  2FFA               	goto	l54
  1554     07F5                     u420:
  1555     07F5                     l830:
  1556     07F5  1D8D               	btfss	13,3	;volatile
  1557     07F6  2FF8               	goto	u431
  1558     07F7  2FF9               	goto	u430
  1559     07F8                     u431:
  1560     07F8  2FFA               	goto	l54
  1561     07F9                     u430:
  1562     07F9                     l832:
  1563     07F9                     l834:
  1564     07F9  2EA6               	goto	l704
  1565     07FA                     l54:
  1566     07FA  2E74               	goto	l682
  1567     07FB  0008               	return
  1568     07FC                     __end_of_logica_punto5:
  1569                           
  1570                           	psect	text2
  1571     065C                     __ptext2:	
  1572 ;; *************** function _init_1 *****************
  1573 ;; Defined at:
  1574 ;;		line 7 in file "punt5.c"
  1575 ;; Parameters:    Size  Location     Type
  1576 ;;		None
  1577 ;; Auto vars:     Size  Location     Type
  1578 ;;		None
  1579 ;; Return value:  Size  Location     Type
  1580 ;;                  1    wreg      void 
  1581 ;; Registers used:
  1582 ;;		status,2
  1583 ;; Tracked objects:
  1584 ;;		On entry : 0/0
  1585 ;;		On exit  : 0/0
  1586 ;;		Unchanged: 0/0
  1587 ;; Data sizes:     COMMON   BANK0   BANK1   BANK2   BANK3   BANK4   BANK5   BANK6   BANK7   BANK8   BANK9  BANK10  BANK1
      +1  BANK12
  1588 ;;      Params:         0       0       0       0       0       0       0       0       0       0       0       0       
      +0       0
  1589 ;;      Locals:         0       0       0       0       0       0       0       0       0       0       0       0       
      +0       0
  1590 ;;      Temps:          0       0       0       0       0       0       0       0       0       0       0       0       
      +0       0
  1591 ;;      Totals:         0       0       0       0       0       0       0       0       0       0       0       0       
      +0       0
  1592 ;;Total ram usage:        0 bytes
  1593 ;; Hardware stack levels used: 1
  1594 ;; This function calls:
  1595 ;;		Nothing
  1596 ;; This function is called by:
  1597 ;;		_logica_punto5
  1598 ;; This function uses a non-reentrant model
  1599 ;;
  1600                           
  1601     065C                     _init_1:	
  1602                           ;psect for function _init_1
  1603                           
  1604     065C                     l676:	
  1605                           ;incstack = 0
  1606                           ; Regs used in _init_1: [status,2]
  1607                           
  1608                           
  1609                           ;punt5.c: 8:     TRISBbits.TRISB0=1;
  1610     065C  0021               	movlb	1	; select bank1
  1611     065D  140D               	bsf	13,0	;volatile
  1612                           
  1613                           ;punt5.c: 9:     ANSELBbits.ANSB0=0;
  1614     065E  0023               	movlb	3	; select bank3
  1615     065F  100D               	bcf	13,0	;volatile
  1616                           
  1617                           ;punt5.c: 11:     TRISBbits.TRISB1=1;
  1618     0660  0021               	movlb	1	; select bank1
  1619     0661  148D               	bsf	13,1	;volatile
  1620                           
  1621                           ;punt5.c: 12:     ANSELBbits.ANSB1=0;
  1622     0662  0023               	movlb	3	; select bank3
  1623     0663  108D               	bcf	13,1	;volatile
  1624                           
  1625                           ;punt5.c: 14:     TRISBbits.TRISB2=1;
  1626     0664  0021               	movlb	1	; select bank1
  1627     0665  150D               	bsf	13,2	;volatile
  1628                           
  1629                           ;punt5.c: 15:     ANSELBbits.ANSB2=0;
  1630     0666  0023               	movlb	3	; select bank3
  1631     0667  110D               	bcf	13,2	;volatile
  1632                           
  1633                           ;punt5.c: 17:     TRISBbits.TRISB3=1;
  1634     0668  0021               	movlb	1	; select bank1
  1635     0669  158D               	bsf	13,3	;volatile
  1636                           
  1637                           ;punt5.c: 18:     ANSELBbits.ANSB3=0;
  1638     066A  0023               	movlb	3	; select bank3
  1639     066B  118D               	bcf	13,3	;volatile
  1640     066C                     l678:
  1641                           
  1642                           ;punt5.c: 20:     TRISC=0x00;
  1643     066C  0021               	movlb	1	; select bank1
  1644     066D  018E               	clrf	14	;volatile
  1645                           
  1646                           ;punt5.c: 21:     LATC=0x00;
  1647     066E  0022               	movlb	2	; select bank2
  1648     066F  018E               	clrf	14	;volatile
  1649     0670                     l27:
  1650     0670  0008               	return
  1651     0671                     __end_of_init_1:
  1652     007E                     btemp	set	126	;btemp
  1653     007E                     wtemp0	set	126
  1654                           
  1655                           	psect	config
  1656                           
  1657                           ;Config register CONFIG1 @ 0x8007
  1658                           ;	Oscillator Selection
  1659                           ;	FOSC = HS, HS Oscillator, High-speed crystal/resonator connected between OSC1 and OSC2
      +                           pins
  1660                           ;	Watchdog Timer Enable
  1661                           ;	WDTE = OFF, WDT disabled
  1662                           ;	Power-up Timer Enable
  1663                           ;	PWRTE = OFF, PWRT disabled
  1664                           ;	MCLR Pin Function Select
  1665                           ;	MCLRE = ON, MCLR/VPP pin function is MCLR
  1666                           ;	Flash Program Memory Code Protection
  1667                           ;	CP = OFF, Program memory code protection is disabled
  1668                           ;	Data Memory Code Protection
  1669                           ;	CPD = OFF, Data memory code protection is disabled
  1670                           ;	Brown-out Reset Enable
  1671                           ;	BOREN = OFF, Brown-out Reset disabled
  1672                           ;	Clock Out Enable
  1673                           ;	CLKOUTEN = OFF, CLKOUT function is disabled. I/O or oscillator function on the CLKOUT 
      +                          pin
  1674                           ;	Internal/External Switchover
  1675                           ;	IESO = ON, Internal/External Switchover mode is enabled
  1676                           ;	Fail-Safe Clock Monitor Enable
  1677                           ;	FCMEN = ON, Fail-Safe Clock Monitor is enabled
  1678     8007                     	org	32775
  1679     8007  39E2               	dw	14818
  1680                           
  1681                           ;Config register CONFIG2 @ 0x8008
  1682                           ;	Flash Memory Self-Write Protection
  1683                           ;	WRT = OFF, Write protection off
  1684                           ;	Voltage Regulator Capacitor Enable
  1685                           ;	VCAPEN = OFF, All VCAP pin functionality is disabled
  1686                           ;	PLL Enable
  1687                           ;	PLLEN = OFF, 4x PLL disabled
  1688                           ;	Stack Overflow/Underflow Reset Enable
  1689                           ;	STVREN = ON, Stack Overflow or Underflow will cause a Reset
  1690                           ;	Brown-out Reset Voltage Selection
  1691                           ;	BORV = LO, Brown-out Reset Voltage (Vbor), low trip point selected.
  1692                           ;	Low-Voltage Programming Enable
  1693                           ;	LVP = OFF, High-voltage on MCLR/VPP must be used for programming
  1694     8008                     	org	32776
  1695     8008  1EFF               	dw	7935

Data Sizes:
    Strings     0
    Constant    0
    Data        0
    BSS         1
    Persistent  32
    Stack       0

Auto Spaces:
    Space          Size  Autos    Used
    COMMON           14     10      11
    BANK0            80      0       0
    BANK1            80      0       0
    BANK2            80      0       0
    BANK3            80      0       0
    BANK4            80      0       0
    BANK5            80      0       0
    BANK6            80      0       0
    BANK7            80      0       0
    BANK8            80      0       0
    BANK9            80      0       0
    BANK10           80      0       0
    BANK11           80      0       0
    BANK12           48      0       0

Pointer List with Targets:

    None.

Critical Paths under _main in COMMON

    _main->_logica_punto5

Critical Paths under _main in BANK0

    None.

Critical Paths under _main in BANK1

    None.

Critical Paths under _main in BANK2

    None.

Critical Paths under _main in BANK3

    None.

Critical Paths under _main in BANK4

    None.

Critical Paths under _main in BANK5

    None.

Critical Paths under _main in BANK6

    None.

Critical Paths under _main in BANK7

    None.

Critical Paths under _main in BANK8

    None.

Critical Paths under _main in BANK9

    None.

Critical Paths under _main in BANK10

    None.

Critical Paths under _main in BANK11

    None.

Critical Paths under _main in BANK12

    None.

Call Graph Tables:

 ---------------------------------------------------------------------------------
 (Depth) Function   	        Calls       Base Space   Used Autos Params    Refs
 ---------------------------------------------------------------------------------
 (0) _main                                                 0     0      0     495
                      _logica_punto5
 ---------------------------------------------------------------------------------
 (1) _logica_punto5                                       11    11      0     495
                                              0 COMMON    10    10      0
                             _init_1
 ---------------------------------------------------------------------------------
 (2) _init_1                                               0     0      0       0
 ---------------------------------------------------------------------------------
 Estimated maximum stack depth 2
 ---------------------------------------------------------------------------------

 Call Graph Graphs:

 _main (ROOT)
   _logica_punto5
     _init_1

 Address spaces:
Name               Size   Autos  Total    Cost      Usage
BIGRAM             3F0      0       0       0        0.0%
EEDATA             100      0       0       0        0.0%
NULL                 0      0       0       0        0.0%
CODE                 0      0       0       0        0.0%
BITCOMMON            E      0       0       1        0.0%
BITSFR0              0      0       0       1        0.0%
SFR0                 0      0       0       1        0.0%
COMMON               E      A       B       2       78.6%
BITSFR1              0      0       0       2        0.0%
SFR1                 0      0       0       2        0.0%
BITSFR2              0      0       0       3        0.0%
SFR2                 0      0       0       3        0.0%
STACK                0      0       0       3        0.0%
BITBANK0            50      0       0       4        0.0%
BITSFR3              0      0       0       4        0.0%
SFR3                 0      0       0       4        0.0%
BANK0               50      0       0       5        0.0%
BITSFR4              0      0       0       5        0.0%
SFR4                 0      0       0       5        0.0%
BITBANK1            50      0       0       6        0.0%
BITSFR5              0      0       0       6        0.0%
SFR5                 0      0       0       6        0.0%
BANK1               50      0       0       7        0.0%
BITSFR6              0      0       0       7        0.0%
SFR6                 0      0       0       7        0.0%
BITBANK2            50      0       0       8        0.0%
BITSFR7              0      0       0       8        0.0%
SFR7                 0      0       0       8        0.0%
BANK2               50      0       0       9        0.0%
BITSFR8              0      0       0       9        0.0%
SFR8                 0      0       0       9        0.0%
BITBANK3            50      0       0      10        0.0%
BITSFR9              0      0       0      10        0.0%
SFR9                 0      0       0      10        0.0%
BANK3               50      0       0      11        0.0%
BITSFR10             0      0       0      11        0.0%
SFR10                0      0       0      11        0.0%
BITBANK4            50      0       0      12        0.0%
BITSFR11             0      0       0      12        0.0%
SFR11                0      0       0      12        0.0%
BANK4               50      0       0      13        0.0%
BITSFR12             0      0       0      13        0.0%
SFR12                0      0       0      13        0.0%
BITBANK5            50      0       0      14        0.0%
BITSFR13             0      0       0      14        0.0%
SFR13                0      0       0      14        0.0%
BANK5               50      0       0      15        0.0%
BITSFR14             0      0       0      15        0.0%
SFR14                0      0       0      15        0.0%
BITBANK6            50      0       0      16        0.0%
BITSFR15             0      0       0      16        0.0%
SFR15                0      0       0      16        0.0%
BANK6               50      0       0      17        0.0%
BITSFR16             0      0       0      17        0.0%
SFR16                0      0       0      17        0.0%
BITBANK7            50      0       0      18        0.0%
BITSFR17             0      0       0      18        0.0%
SFR17                0      0       0      18        0.0%
BANK7               50      0       0      19        0.0%
BITSFR18             0      0       0      19        0.0%
SFR18                0      0       0      19        0.0%
BITSFR19             0      0       0      20        0.0%
SFR19                0      0       0      20        0.0%
ABS                  0      0       B      20        0.0%
BITBANK8            50      0       0      21        0.0%
BITSFR20             0      0       0      21        0.0%
SFR20                0      0       0      21        0.0%
BANK8               50      0       0      22        0.0%
BITSFR21             0      0       0      22        0.0%
SFR21                0      0       0      22        0.0%
BITBANK9            50      0       0      23        0.0%
BITSFR22             0      0       0      23        0.0%
SFR22                0      0       0      23        0.0%
BANK9               50      0       0      24        0.0%
BITSFR23             0      0       0      24        0.0%
SFR23                0      0       0      24        0.0%
BITBANK10           50      0       0      25        0.0%
BITSFR24             0      0       0      25        0.0%
SFR24                0      0       0      25        0.0%
BANK10              50      0       0      26        0.0%
BITSFR25             0      0       0      26        0.0%
SFR25                0      0       0      26        0.0%
BITBANK11           50      0       0      27        0.0%
BITSFR26             0      0       0      27        0.0%
SFR26                0      0       0      27        0.0%
BANK11              50      0       0      28        0.0%
BITSFR27             0      0       0      28        0.0%
SFR27                0      0       0      28        0.0%
BITBANK12           30      0       0      29        0.0%
BITSFR28             0      0       0      29        0.0%
SFR28                0      0       0      29        0.0%
BANK12              30      0       0      30        0.0%
BITSFR29             0      0       0      30        0.0%
SFR29                0      0       0      30        0.0%
BITSFR30             0      0       0      31        0.0%
SFR30                0      0       0      31        0.0%
DATA                 0      0       B      31        0.0%
BITSFR31             0      0       0      32        0.0%
SFR31                0      0       0      32        0.0%


Microchip Technology PIC Macro Assembler V2.41 build 20230208172133 
Symbol Table                                                                                   Fri Sep 08 08:36:04 2023

                      l7 0659                        l8 0659                       l31 06A9  
                     l27 0670                       l51 0798                       l43 0741  
                     l35 06DC                       l54 07FA                       l55 07C2  
                     l47 076D                       l39 070E                       l59 07F1  
                     u10 0679                       u11 0678                       u20 067D  
                     u21 067C                       u30 0681                       u31 0680  
                     u40 0685                       u41 0684                       u60 06A6  
                     u61 06A5                       u70 06AD                       u54 068C  
                     u71 06AC                       u55 068B                       u80 06B1  
                     u81 06B0                       u90 06B5                       u91 06B4  
                    l700 069E                      l710 06B5                      l702 06A2  
                    l720 06C6                      l712 06B9                      l704 06A6  
                    l810 07BC                      l730 06E8                      l722 06D1  
                    l706 06AD                      l804 07A2                      l740 06FA  
                    l732 06EC                      l708 06B1                      l830 07F5  
                    l822 07D0                      l814 07C6                      l806 07AE  
                    l750 0716                      l742 0705                      l726 06E0  
                    l718 06BA                      l832 07F9                      l824 07DC  
                    l816 07CA                      l808 07B9                      l760 072C  
                    l752 071A                      l744 0708                      l728 06E4  
                    l680 0671                      l834 07F9                      l826 07E7  
                    l818 07CE                      l762 0737                      l754 071E  
                    l738 06EE                      l690 0685                      l682 0674  
                    l676 065C                      l780 0771                      l772 074B  
                    l748 0712                      l684 0679                      l678 066C  
                    l790 0783                      l782 0775                      l774 0757  
                    l766 0745                      l758 0720                      l686 067D  
                    l846 0656                      l792 078E                      l776 0762  
                    l768 0749                      l696 0687                      l688 0681  
                    l698 0693                      l796 079C                      l788 0777  
                    l798 07A0                      u100 06B9                      u101 06B8  
                    u200 0716                      u120 06DB                      u201 0715  
                    u121 06DA                      u210 071A                      u130 06E0  
                    u114 06BF                      u211 0719                      u131 06DF  
                    u115 06BE                      u300 0775                      u220 071E  
                    u140 06E4                      u301 0774                      u221 071D  
                    u141 06E3                      u150 06E8                      u151 06E7  
                    u320 0797                      u240 0740                      u160 06EC  
                    u321 0796                      u241 073F                      u161 06EB  
                    u410 07F0                      u330 079C                      u314 077C  
                    u250 0745                      u234 0725                      u411 07EF  
                    u331 079B                      u315 077B                      u251 0744  
                    u235 0724                      u420 07F5                      u404 07D5  
                    u340 07A0                      u260 0749                      u180 070D  
                    u421 07F4                      u405 07D4                      u341 079F  
                    u261 0748                      u181 070C                      u430 07F9  
                    u190 0712                      u174 06F3                      u431 07F8  
                    u191 0711                      u175 06F2                      u360 07C1  
                    u280 076C                      u361 07C0                      u281 076B  
                    u370 07C6                      u354 07A7                      u290 0771  
                    u274 0750                      u371 07C5                      u507 07B3  
                    u355 07A6                      u291 0770                      u275 074F  
                    u380 07CA                      u517 07E1                      u381 07C9  
                    u390 07CE                      u391 07CD                      u447 0698  
                    u457 06CB                      u467 06FF                      u477 0731  
                    u487 075C                      u497 0788                      _dig 007A  
                    wreg 0009                     _LATC 010E                     _main 0656  
                   btemp 007E                     start 0002                    ?_main 0070  
                  _TRISC 008E                    status 0003                    wtemp0 007E  
        __initialization 07FC             __end_of_main 065C                   ??_main 007A  
         logica_punto5@i 0072                   _init_1 065C  __end_of__initialization 07FD  
         __pcstackCOMMON 0070               __pmaintext 0656                  ?_init_1 0070  
          _logica_punto5 0671                  __ptext1 0671                  __ptext2 065C  
   end_of_initialization 07FD           ?_logica_punto5 0070                _PORTBbits 000D  
              _TRISBbits 008D           __end_of_init_1 0671      start_initialization 07FC  
        ??_logica_punto5 0070                 ??_init_1 0070              __pbssCOMMON 007A  
              ___latbits 0003               _ANSELBbits 018D       logica_punto5@i_130 0073  
     logica_punto5@i_131 0074       logica_punto5@i_132 0075       logica_punto5@i_133 0076  
     logica_punto5@i_134 0077       logica_punto5@i_135 0078       logica_punto5@i_136 0079  
  __end_of_logica_punto5 07FC  
